target datalayout = "e-m:e-p270:32:32-p271:32:32-p272:64:64-i64:64-i128:128-f80:128-n8:16:32:64-S128"
target triple = "x86_64-pc-linux-gnu"

%"struct.glslang::TSourceLoc" = type { ptr, i32, i32, i32 }
%"class.glslang::TPpToken" = type <{ %"struct.glslang::TSourceLoc", i8, i8, [6 x i8], %union.anon.79, [1025 x i8], [7 x i8] }>
%union.anon.79 = type { double }
%"class.glslang::TPpContext" = type <{ ptr, %"class.glslang::TMap", %"class.glslang::TStringAtomMap", ptr, i32, [4 x i8], ptr, ptr, i32, i32, i32, [4 x i8], ptr, %"class.std::vector.14", %"class.std::vector.16", i32, [65 x i8], [3 x i8], i32, [4 x i8], %"class.std::vector.21", i8, i8, [6 x i8], ptr, i8, [7 x i8], %"class.std::__cxx11::basic_string.26", %"class.std::stack", %"class.std::__cxx11::basic_string.26", %"class.std::__cxx11::basic_istringstream", i8, [7 x i8] }>
%"class.glslang::TMap" = type { %"class.std::map" }
%"class.std::map" = type { %"class.std::_Rb_tree" }
%"class.std::_Rb_tree" = type { %"struct.std::_Rb_tree<int, std::pair<const int, glslang::TPpContext::MacroSymbol>, std::_Select1st<std::pair<const int, glslang::TPpContext::MacroSymbol>>, std::less<int>, glslang::pool_allocator<std::pair<const int, glslang::TPpContext::MacroSymbol>>>::_Rb_tree_impl" }
%"struct.std::_Rb_tree<int, std::pair<const int, glslang::TPpContext::MacroSymbol>, std::_Select1st<std::pair<const int, glslang::TPpContext::MacroSymbol>>, std::less<int>, glslang::pool_allocator<std::pair<const int, glslang::TPpContext::MacroSymbol>>>::_Rb_tree_impl" = type { %"class.glslang::pool_allocator.4", %"struct.std::_Rb_tree_key_compare", %"struct.std::_Rb_tree_header" }
%"class.glslang::pool_allocator.4" = type { ptr }
%"struct.std::_Rb_tree_key_compare" = type { %"struct.std::less" }
%"struct.std::less" = type { i8 }
%"struct.std::_Rb_tree_header" = type { %"struct.std::_Rb_tree_node_base", i64 }
%"struct.std::_Rb_tree_node_base" = type { i32, ptr, ptr, ptr }
%"class.glslang::TStringAtomMap" = type { %"class.glslang::TUnorderedMap", %"class.glslang::TVector.9", i32, %"class.std::__cxx11::basic_string" }
%"class.glslang::TUnorderedMap" = type { %"class.std::unordered_map" }
%"class.std::unordered_map" = type { %"class.std::_Hashtable" }
%"class.std::_Hashtable" = type { %"struct.std::__detail::_Hashtable_alloc", ptr, i64, %"struct.std::__detail::_Hash_node_base", i64, %"struct.std::__detail::_Prime_rehash_policy", ptr }
%"struct.std::__detail::_Hashtable_alloc" = type { %"struct.std::__detail::_Hashtable_ebo_helper.7" }
%"struct.std::__detail::_Hashtable_ebo_helper.7" = type { %"class.glslang::pool_allocator.8" }
%"class.glslang::pool_allocator.8" = type { ptr }
%"struct.std::__detail::_Hash_node_base" = type { ptr }
%"struct.std::__detail::_Prime_rehash_policy" = type { float, i64 }
%"class.glslang::TVector.9" = type { %"class.std::vector.10" }
%"class.std::vector.10" = type { %"struct.std::_Vector_base.11" }
%"struct.std::_Vector_base.11" = type { %"struct.std::_Vector_base<const std::__cxx11::basic_string<char, std::char_traits<char>, glslang::pool_allocator<char>> *, glslang::pool_allocator<const std::__cxx11::basic_string<char, std::char_traits<char>, glslang::pool_allocator<char>> *>>::_Vector_impl" }
%"struct.std::_Vector_base<const std::__cxx11::basic_string<char, std::char_traits<char>, glslang::pool_allocator<char>> *, glslang::pool_allocator<const std::__cxx11::basic_string<char, std::char_traits<char>, glslang::pool_allocator<char>> *>>::_Vector_impl" = type { %"class.glslang::pool_allocator.12", %"struct.std::_Vector_base<const std::__cxx11::basic_string<char, std::char_traits<char>, glslang::pool_allocator<char>> *, glslang::pool_allocator<const std::__cxx11::basic_string<char, std::char_traits<char>, glslang::pool_allocator<char>> *>>::_Vector_impl_data" }
%"class.glslang::pool_allocator.12" = type { ptr }
%"struct.std::_Vector_base<const std::__cxx11::basic_string<char, std::char_traits<char>, glslang::pool_allocator<char>> *, glslang::pool_allocator<const std::__cxx11::basic_string<char, std::char_traits<char>, glslang::pool_allocator<char>> *>>::_Vector_impl_data" = type { ptr, ptr, ptr }
%"class.std::__cxx11::basic_string" = type { %"struct.std::__cxx11::basic_string<char, std::char_traits<char>, glslang::pool_allocator<char>>::_Alloc_hider", i64, %union.anon }
%"struct.std::__cxx11::basic_string<char, std::char_traits<char>, glslang::pool_allocator<char>>::_Alloc_hider" = type { %"class.glslang::pool_allocator.13", ptr }
%"class.glslang::pool_allocator.13" = type { ptr }
%union.anon = type { i64, [8 x i8] }
%"class.std::vector.14" = type { %"struct.std::_Vector_base.15" }
%"struct.std::_Vector_base.15" = type { %"struct.std::_Vector_base<int, std::allocator<int>>::_Vector_impl" }
%"struct.std::_Vector_base<int, std::allocator<int>>::_Vector_impl" = type { %"struct.std::_Vector_base<int, std::allocator<int>>::_Vector_impl_data" }
%"struct.std::_Vector_base<int, std::allocator<int>>::_Vector_impl_data" = type { ptr, ptr, ptr }
%"class.std::vector.16" = type { %"struct.std::_Vector_base.17" }
%"struct.std::_Vector_base.17" = type { %"struct.std::_Vector_base<glslang::TSourceLoc, std::allocator<glslang::TSourceLoc>>::_Vector_impl" }
%"struct.std::_Vector_base<glslang::TSourceLoc, std::allocator<glslang::TSourceLoc>>::_Vector_impl" = type { %"struct.std::_Vector_base<glslang::TSourceLoc, std::allocator<glslang::TSourceLoc>>::_Vector_impl_data" }
%"struct.std::_Vector_base<glslang::TSourceLoc, std::allocator<glslang::TSourceLoc>>::_Vector_impl_data" = type { ptr, ptr, ptr }
%"class.std::vector.21" = type { %"struct.std::_Vector_base.22" }
%"struct.std::_Vector_base.22" = type { %"struct.std::_Vector_base<glslang::TPpContext::tInput *, std::allocator<glslang::TPpContext::tInput *>>::_Vector_impl" }
%"struct.std::_Vector_base<glslang::TPpContext::tInput *, std::allocator<glslang::TPpContext::tInput *>>::_Vector_impl" = type { %"struct.std::_Vector_base<glslang::TPpContext::tInput *, std::allocator<glslang::TPpContext::tInput *>>::_Vector_impl_data" }
%"struct.std::_Vector_base<glslang::TPpContext::tInput *, std::allocator<glslang::TPpContext::tInput *>>::_Vector_impl_data" = type { ptr, ptr, ptr }
%"class.std::stack" = type { %"class.std::deque" }
%"class.std::deque" = type { %"class.std::_Deque_base" }
%"class.std::_Deque_base" = type { %"struct.std::_Deque_base<glslang::TShader::Includer::IncludeResult *, std::allocator<glslang::TShader::Includer::IncludeResult *>>::_Deque_impl" }
%"struct.std::_Deque_base<glslang::TShader::Includer::IncludeResult *, std::allocator<glslang::TShader::Includer::IncludeResult *>>::_Deque_impl" = type { %"struct.std::_Deque_base<glslang::TShader::Includer::IncludeResult *, std::allocator<glslang::TShader::Includer::IncludeResult *>>::_Deque_impl_data" }
%"struct.std::_Deque_base<glslang::TShader::Includer::IncludeResult *, std::allocator<glslang::TShader::Includer::IncludeResult *>>::_Deque_impl_data" = type { ptr, i64, %"struct.std::_Deque_iterator", %"struct.std::_Deque_iterator" }
%"struct.std::_Deque_iterator" = type { ptr, ptr, ptr, ptr }
%"class.std::__cxx11::basic_string.26" = type { %"struct.std::__cxx11::basic_string<char>::_Alloc_hider", i64, %union.anon.30 }
%"struct.std::__cxx11::basic_string<char>::_Alloc_hider" = type { ptr }
%union.anon.30 = type { i64, [8 x i8] }
%"class.std::__cxx11::basic_istringstream" = type { %"class.std::basic_istream.base", %"class.std::__cxx11::basic_stringbuf", %"class.std::basic_ios" }
%"class.std::basic_istream.base" = type { ptr, i64 }
%"class.std::__cxx11::basic_stringbuf" = type { %"class.std::basic_streambuf", i32, %"class.std::__cxx11::basic_string.26" }
%"class.std::basic_streambuf" = type { ptr, ptr, ptr, ptr, ptr, ptr, ptr, %"class.std::locale" }
%"class.std::locale" = type { ptr }
%"class.std::basic_ios" = type { %"class.std::ios_base", ptr, i8, i8, ptr, ptr, ptr, ptr }
%"class.std::ios_base" = type { ptr, i64, i64, i32, i32, i32, ptr, %"struct.std::ios_base::_Words", [8 x %"struct.std::ios_base::_Words"], i32, ptr, %"class.std::locale" }
%"struct.std::ios_base::_Words" = type { ptr, i64 }

@.str.2 = private unnamed_addr constant [1 x i8] zeroinitializer, align 1
@.str.42 = private unnamed_addr constant [2 x i8] c" \00", align 1
@.str.50 = private unnamed_addr constant [7 x i8] c"#error\00", align 1

; Function Attrs: mustprogress nounwind uwtable
define linkonce_odr noundef ptr @_ZNKSt7__cxx1112basic_stringIcSt11char_traitsIcEN7glslang14pool_allocatorIcEEE7_M_dataEv(ptr noundef nonnull align 8 dereferenceable(40) %0) #0 comdat align 2 {
  %2 = alloca ptr, align 8
  store ptr %0, ptr %2, align 8
  %3 = load ptr, ptr %2, align 8
  %4 = getelementptr inbounds %"class.std::__cxx11::basic_string", ptr %3, i32 0, i32 0
  %5 = getelementptr inbounds %"struct.std::__cxx11::basic_string<char, std::char_traits<char>, glslang::pool_allocator<char>>::_Alloc_hider", ptr %4, i32 0, i32 1
  %6 = load ptr, ptr %5, align 8
  ret ptr %6
}

; Function Attrs: mustprogress nounwind uwtable
define linkonce_odr noundef ptr @_ZNKSt7__cxx1112basic_stringIcSt11char_traitsIcEN7glslang14pool_allocatorIcEEE5c_strEv(ptr noundef nonnull align 8 dereferenceable(40) %0) #0 comdat align 2 {
  %2 = alloca ptr, align 8
  store ptr %0, ptr %2, align 8
  %3 = load ptr, ptr %2, align 8
  %4 = call noundef ptr @_ZNKSt7__cxx1112basic_stringIcSt11char_traitsIcEN7glslang14pool_allocatorIcEEE7_M_dataEv(ptr noundef nonnull align 8 dereferenceable(40) %3)
  ret ptr %4
}

; Function Attrs: mustprogress nounwind uwtable
define linkonce_odr noundef nonnull align 8 dereferenceable(8) ptr @_ZNKSt6vectorIPKNSt7__cxx1112basic_stringIcSt11char_traitsIcEN7glslang14pool_allocatorIcEEEENS5_IS9_EEEixEm(ptr noundef nonnull align 8 dereferenceable(32) %0, i64 noundef %1) #0 comdat align 2 {
  %3 = alloca ptr, align 8
  %4 = alloca i64, align 8
  store ptr %0, ptr %3, align 8
  store i64 %1, ptr %4, align 8
  %5 = load ptr, ptr %3, align 8
  %6 = getelementptr inbounds %"struct.std::_Vector_base.11", ptr %5, i32 0, i32 0
  %7 = getelementptr inbounds i8, ptr %6, i64 8
  %8 = getelementptr inbounds %"struct.std::_Vector_base<const std::__cxx11::basic_string<char, std::char_traits<char>, glslang::pool_allocator<char>> *, glslang::pool_allocator<const std::__cxx11::basic_string<char, std::char_traits<char>, glslang::pool_allocator<char>> *>>::_Vector_impl_data", ptr %7, i32 0, i32 0
  %9 = load ptr, ptr %8, align 8
  %10 = load i64, ptr %4, align 8
  %11 = getelementptr inbounds ptr, ptr %9, i64 %10
  ret ptr %11
}

; Function Attrs: mustprogress nounwind uwtable
define linkonce_odr noundef ptr @_ZNK7glslang14TStringAtomMap9getStringEi(ptr noundef nonnull align 8 dereferenceable(144) %0, i32 noundef %1) #0 comdat align 2 {
  %3 = alloca ptr, align 8
  %4 = alloca i32, align 4
  store ptr %0, ptr %3, align 8
  store i32 %1, ptr %4, align 4
  %5 = load ptr, ptr %3, align 8
  %6 = getelementptr inbounds %"class.glslang::TStringAtomMap", ptr %5, i32 0, i32 1
  %7 = load i32, ptr %4, align 4
  %8 = sext i32 %7 to i64
  %9 = call noundef nonnull align 8 dereferenceable(8) ptr @_ZNKSt6vectorIPKNSt7__cxx1112basic_stringIcSt11char_traitsIcEN7glslang14pool_allocatorIcEEEENS5_IS9_EEEixEm(ptr noundef nonnull align 8 dereferenceable(32) %6, i64 noundef %8) #12
  %10 = load ptr, ptr %9, align 8
  %11 = call noundef ptr @_ZNKSt7__cxx1112basic_stringIcSt11char_traitsIcEN7glslang14pool_allocatorIcEEE5c_strEv(ptr noundef nonnull align 8 dereferenceable(40) %10) #12
  ret ptr %11
}

; Function Attrs: mustprogress nounwind uwtable
define noundef i32 @_ZN7glslang10TPpContext8CPPerrorEPNS_8TPpTokenE(ptr noundef nonnull align 8 dereferenceable(969) %0, ptr noundef %1) #0 align 2 {
  %3 = alloca ptr, align 8
  %4 = alloca ptr, align 8
  %5 = alloca i32, align 4
  %6 = alloca %"class.std::__cxx11::basic_string.26", align 8
  %7 = alloca %"struct.glslang::TSourceLoc", align 8
  store ptr %0, ptr %3, align 8
  store ptr %1, ptr %4, align 8
  %8 = load ptr, ptr %3, align 8
  %9 = getelementptr inbounds %"class.glslang::TPpContext", ptr %8, i32 0, i32 31
  store i8 1, ptr %9, align 8
  %10 = load ptr, ptr %4, align 8
  %11 = call noundef i32 @_ZN7glslang10TPpContext9scanTokenEPNS_8TPpTokenE(ptr noundef nonnull align 8 dereferenceable(969) %8, ptr noundef %10)
  store i32 %11, ptr %5, align 4
  %12 = getelementptr inbounds %"class.glslang::TPpContext", ptr %8, i32 0, i32 31
  store i8 0, ptr %12, align 8
  call void @_ZNSt7__cxx1112basic_stringIcSt11char_traitsIcESaIcEEC1Ev(ptr noundef nonnull align 8 dereferenceable(32) %6) #12
  %13 = load ptr, ptr %4, align 8
  %14 = getelementptr inbounds %"class.glslang::TPpToken", ptr %13, i32 0, i32 0
  call void @llvm.memcpy.p0.p0.i64(ptr align 8 %7, ptr align 8 %14, i64 24, i1 false)
  br label %15

15:                                               ; preds = %72, %2
  %16 = load i32, ptr %5, align 4
  %17 = icmp ne i32 %16, 10
  br i1 %17, label %18, label %21

18:                                               ; preds = %15
  %19 = load i32, ptr %5, align 4
  %20 = icmp ne i32 %19, -1
  br label %21

21:                                               ; preds = %18, %15
  %22 = phi i1 [ false, %15 ], [ %20, %18 ]
  br i1 %22, label %23, label %76

23:                                               ; preds = %21
  %24 = load i32, ptr %5, align 4
  %25 = icmp eq i32 %24, 156
  br i1 %25, label %50, label %26

26:                                               ; preds = %23
  %27 = load i32, ptr %5, align 4
  %28 = icmp eq i32 %27, 157
  br i1 %28, label %50, label %29

29:                                               ; preds = %26
  %30 = load i32, ptr %5, align 4
  %31 = icmp eq i32 %30, 152
  br i1 %31, label %50, label %32

32:                                               ; preds = %29
  %33 = load i32, ptr %5, align 4
  %34 = icmp eq i32 %33, 153
  br i1 %34, label %50, label %35

35:                                               ; preds = %32
  %36 = load i32, ptr %5, align 4
  %37 = icmp eq i32 %36, 154
  br i1 %37, label %50, label %38

38:                                               ; preds = %35
  %39 = load i32, ptr %5, align 4
  %40 = icmp eq i32 %39, 155
  br i1 %40, label %50, label %41

41:                                               ; preds = %38
  %42 = load i32, ptr %5, align 4
  %43 = icmp eq i32 %42, 160
  br i1 %43, label %50, label %44

44:                                               ; preds = %41
  %45 = load i32, ptr %5, align 4
  %46 = icmp eq i32 %45, 158
  br i1 %46, label %50, label %47

47:                                               ; preds = %44
  %48 = load i32, ptr %5, align 4
  %49 = icmp eq i32 %48, 159
  br i1 %49, label %50, label %55

50:                                               ; preds = %47, %44, %41, %38, %35, %32, %29, %26, %23
  %51 = load ptr, ptr %4, align 8
  %52 = getelementptr inbounds %"class.glslang::TPpToken", ptr %51, i32 0, i32 5
  %53 = getelementptr inbounds [1025 x i8], ptr %52, i64 0, i64 0
  %54 = call noundef nonnull align 8 dereferenceable(32) ptr @_ZNSt7__cxx1112basic_stringIcSt11char_traitsIcESaIcEE6appendEPKc(ptr noundef nonnull align 8 dereferenceable(32) %6, ptr noundef %53)
  br label %72

55:                                               ; preds = %47
  %56 = load i32, ptr %5, align 4
  %57 = icmp eq i32 %56, 162
  br i1 %57, label %61, label %58

58:                                               ; preds = %55
  %59 = load i32, ptr %5, align 4
  %60 = icmp eq i32 %59, 161
  br i1 %60, label %61, label %66

61:                                               ; preds = %58, %55
  %62 = load ptr, ptr %4, align 8
  %63 = getelementptr inbounds %"class.glslang::TPpToken", ptr %62, i32 0, i32 5
  %64 = getelementptr inbounds [1025 x i8], ptr %63, i64 0, i64 0
  %65 = call noundef nonnull align 8 dereferenceable(32) ptr @_ZNSt7__cxx1112basic_stringIcSt11char_traitsIcESaIcEE6appendEPKc(ptr noundef nonnull align 8 dereferenceable(32) %6, ptr noundef %64)
  br label %71

66:                                               ; preds = %58
  %67 = getelementptr inbounds %"class.glslang::TPpContext", ptr %8, i32 0, i32 2
  %68 = load i32, ptr %5, align 4
  %69 = call noundef ptr @_ZNK7glslang14TStringAtomMap9getStringEi(ptr noundef nonnull align 8 dereferenceable(144) %67, i32 noundef %68)
  %70 = call noundef nonnull align 8 dereferenceable(32) ptr @_ZNSt7__cxx1112basic_stringIcSt11char_traitsIcESaIcEE6appendEPKc(ptr noundef nonnull align 8 dereferenceable(32) %6, ptr noundef %69)
  br label %71

71:                                               ; preds = %66, %61
  br label %72

72:                                               ; preds = %71, %50
  %73 = call noundef nonnull align 8 dereferenceable(32) ptr @_ZNSt7__cxx1112basic_stringIcSt11char_traitsIcESaIcEE6appendEPKc(ptr noundef nonnull align 8 dereferenceable(32) %6, ptr noundef @.str.42)
  %74 = load ptr, ptr %4, align 8
  %75 = call noundef i32 @_ZN7glslang10TPpContext9scanTokenEPNS_8TPpTokenE(ptr noundef nonnull align 8 dereferenceable(969) %8, ptr noundef %74)
  store i32 %75, ptr %5, align 4
  br label %15, !llvm.loop !28

76:                                               ; preds = %21
  %77 = getelementptr inbounds %"class.glslang::TPpContext", ptr %8, i32 0, i32 12
  %78 = load ptr, ptr %77, align 8
  %79 = getelementptr inbounds %"struct.glslang::TSourceLoc", ptr %7, i32 0, i32 2
  %80 = load i32, ptr %79, align 4
  %81 = call noundef ptr @_ZNKSt7__cxx1112basic_stringIcSt11char_traitsIcESaIcEE5c_strEv(ptr noundef nonnull align 8 dereferenceable(32) %6) #12
  %82 = load ptr, ptr %78, align 8
  %83 = getelementptr inbounds ptr, ptr %82, i64 59
  %84 = load ptr, ptr %83, align 8
  call void %84(ptr noundef nonnull align 8 dereferenceable(1280) %78, i32 noundef %80, ptr noundef %81)
  %85 = getelementptr inbounds %"class.glslang::TPpContext", ptr %8, i32 0, i32 12
  %86 = load ptr, ptr %85, align 8
  %87 = call noundef ptr @_ZNKSt7__cxx1112basic_stringIcSt11char_traitsIcESaIcEE5c_strEv(ptr noundef nonnull align 8 dereferenceable(32) %6) #12
  %88 = load ptr, ptr %86, align 8
  %89 = getelementptr inbounds ptr, ptr %88, i64 45
  %90 = load ptr, ptr %89, align 8
  call void (ptr, ptr, ptr, ptr, ptr, ...) %90(ptr noundef nonnull align 8 dereferenceable(1280) %86, ptr noundef nonnull align 8 dereferenceable(24) %7, ptr noundef %87, ptr noundef @.str.50, ptr noundef @.str.2)
  call void @_ZNSt7__cxx1112basic_stringIcSt11char_traitsIcESaIcEED1Ev(ptr noundef nonnull align 8 dereferenceable(32) %6) #12
  ret i32 10
}