; Function Attrs: mustprogress nounwind uwtable
define noundef i32 @_ZN7glslang10TPpContext8CPPerrorEPNS_8TPpTokenE(ptr noundef nonnull align 8 dereferenceable(969) %0, ptr noundef %1) local_unnamed_addr #0 align 2 {
  %3 = alloca %"class.std::__cxx11::basic_string.26", align 8
  %4 = alloca %"struct.glslang::TSourceLoc", align 8
  %5 = getelementptr inbounds i8, ptr %0, i64 968
  store i8 1, ptr %5, align 8
  %6 = tail call noundef i32 @_ZN7glslang10TPpContext9scanTokenEPNS_8TPpTokenE(ptr noundef nonnull align 8 dereferenceable(969) %0, ptr noundef %1)
  store i8 0, ptr %5, align 8
  call void @_ZNSt7__cxx1112basic_stringIcSt11char_traitsIcESaIcEEC1Ev(ptr noundef nonnull align 8 dereferenceable(32) %3) #17
  call void @llvm.memcpy.p0.p0.i64(ptr noundef nonnull align 8 dereferenceable(24) %4, ptr noundef nonnull align 8 dereferenceable(24) %1, i64 24, i1 false)
  %7 = getelementptr inbounds i8, ptr %1, i64 40
  %8 = getelementptr inbounds i8, ptr %0, i64 136
  br label %9

9:                                                ; preds = %24, %2
  %.0 = phi i32 [ %6, %2 ], [ %26, %24 ]
  switch i32 %.0, label %12 [
    i32 -1, label %27
    i32 10, label %27
    i32 160, label %10
    i32 159, label %10
    i32 158, label %10
    i32 157, label %10
    i32 156, label %10
    i32 155, label %10
    i32 154, label %10
    i32 153, label %10
    i32 152, label %10
  ]

10:                                               ; preds = %9, %9, %9, %9, %9, %9, %9, %9, %9
  %11 = call noundef nonnull align 8 dereferenceable(32) ptr @_ZNSt7__cxx1112basic_stringIcSt11char_traitsIcESaIcEE6appendEPKc(ptr noundef nonnull align 8 dereferenceable(32) %3, ptr noundef nonnull %7) #17
  br label %24

12:                                               ; preds = %9
  %13 = add i32 %.0, -161
  %or.cond17 = icmp ult i32 %13, 2
  br i1 %or.cond17, label %14, label %16

14:                                               ; preds = %12
  %15 = call noundef nonnull align 8 dereferenceable(32) ptr @_ZNSt7__cxx1112basic_stringIcSt11char_traitsIcESaIcEE6appendEPKc(ptr noundef nonnull align 8 dereferenceable(32) %3, ptr noundef nonnull %7) #17
  br label %24

16:                                               ; preds = %12
  %17 = sext i32 %.0 to i64
  %18 = load ptr, ptr %8, align 8
  %19 = getelementptr inbounds ptr, ptr %18, i64 %17
  %20 = load ptr, ptr %19, align 8
  %21 = getelementptr inbounds i8, ptr %20, i64 8
  %22 = load ptr, ptr %21, align 8
  %23 = call noundef nonnull align 8 dereferenceable(32) ptr @_ZNSt7__cxx1112basic_stringIcSt11char_traitsIcESaIcEE6appendEPKc(ptr noundef nonnull align 8 dereferenceable(32) %3, ptr noundef %22) #17
  br label %24

24:                                               ; preds = %14, %16, %10
  %25 = call noundef nonnull align 8 dereferenceable(32) ptr @_ZNSt7__cxx1112basic_stringIcSt11char_traitsIcESaIcEE6appendEPKc(ptr noundef nonnull align 8 dereferenceable(32) %3, ptr noundef nonnull @.str.42) #17
  %26 = call noundef i32 @_ZN7glslang10TPpContext9scanTokenEPNS_8TPpTokenE(ptr noundef nonnull align 8 dereferenceable(969) %0, ptr noundef %1)
  br label %9, !llvm.loop !45

27:                                               ; preds = %9, %9
  %28 = getelementptr inbounds i8, ptr %0, i64 256
  %29 = load ptr, ptr %28, align 8
  %30 = getelementptr inbounds i8, ptr %4, i64 12
  %31 = load i32, ptr %30, align 4
  %32 = call noundef ptr @_ZNKSt7__cxx1112basic_stringIcSt11char_traitsIcESaIcEE5c_strEv(ptr noundef nonnull align 8 dereferenceable(32) %3) #17
  %33 = load ptr, ptr %29, align 8
  %34 = getelementptr inbounds i8, ptr %33, i64 472
  %35 = load ptr, ptr %34, align 8
  call void %35(ptr noundef nonnull align 8 dereferenceable(1280) %29, i32 noundef %31, ptr noundef %32) #17
  %36 = load ptr, ptr %28, align 8
  %37 = call noundef ptr @_ZNKSt7__cxx1112basic_stringIcSt11char_traitsIcESaIcEE5c_strEv(ptr noundef nonnull align 8 dereferenceable(32) %3) #17
  %38 = load ptr, ptr %36, align 8
  %39 = getelementptr inbounds i8, ptr %38, i64 360
  %40 = load ptr, ptr %39, align 8
  call void (ptr, ptr, ptr, ptr, ptr, ...) %40(ptr noundef nonnull align 8 dereferenceable(1280) %36, ptr noundef nonnull align 8 dereferenceable(24) %4, ptr noundef %37, ptr noundef nonnull @.str.50, ptr noundef nonnull @.str.2) #17
  call void @_ZNSt7__cxx1112basic_stringIcSt11char_traitsIcESaIcEED1Ev(ptr noundef nonnull align 8 dereferenceable(32) %3) #17
  ret i32 10
}